; ModuleID = '46/1985.c'
source_filename = "46/1985.c"
target datalayout = "e-m:e-p270:32:32-p271:32:32-p272:64:64-i64:64-f80:128-n8:16:32:64-S128"
target triple = "x86_64-pc-linux-gnu"

@.str = private unnamed_addr constant [5 x i8] c"%d%d\00", align 1
@.str.1 = private unnamed_addr constant [3 x i8] c"%d\00", align 1
@sz = common dso_local global [100 x [100 x i32]] zeroinitializer, align 16
@.str.2 = private unnamed_addr constant [4 x i8] c"%d\0A\00", align 1

; Function Attrs: noinline nounwind uwtable
define dso_local i32 @main() #0 {
  %1 = alloca i32, align 4
  %2 = alloca i32, align 4
  %3 = alloca i32, align 4
  %4 = alloca i32, align 4
  %5 = alloca i32, align 4
  %6 = alloca i32, align 4
  %7 = alloca i32, align 4
  %8 = alloca i32, align 4
  %9 = alloca i32, align 4
  %10 = alloca i32, align 4
  store i32 0, i32* %1, align 4
  %11 = call i32 (i8*, ...) @__isoc99_scanf(i8* getelementptr inbounds ([5 x i8], [5 x i8]* @.str, i64 0, i64 0), i32* %2, i32* %3)
  store i32 0, i32* %4, align 4
  br label %12

12:                                               ; preds = %33, %0
  %13 = load i32, i32* %4, align 4
  %14 = load i32, i32* %2, align 4
  %15 = icmp slt i32 %13, %14
  br i1 %15, label %16, label %36

16:                                               ; preds = %12
  store i32 0, i32* %5, align 4
  br label %17

17:                                               ; preds = %29, %16
  %18 = load i32, i32* %5, align 4
  %19 = load i32, i32* %3, align 4
  %20 = icmp slt i32 %18, %19
  br i1 %20, label %21, label %32

21:                                               ; preds = %17
  %22 = load i32, i32* %4, align 4
  %23 = sext i32 %22 to i64
  %24 = getelementptr inbounds [100 x [100 x i32]], [100 x [100 x i32]]* @sz, i64 0, i64 %23
  %25 = load i32, i32* %5, align 4
  %26 = sext i32 %25 to i64
  %27 = getelementptr inbounds [100 x i32], [100 x i32]* %24, i64 0, i64 %26
  %28 = call i32 (i8*, ...) @__isoc99_scanf(i8* getelementptr inbounds ([3 x i8], [3 x i8]* @.str.1, i64 0, i64 0), i32* %27)
  br label %29

29:                                               ; preds = %21
  %30 = load i32, i32* %5, align 4
  %31 = add nsw i32 %30, 1
  store i32 %31, i32* %5, align 4
  br label %17

32:                                               ; preds = %17
  br label %33

33:                                               ; preds = %32
  %34 = load i32, i32* %4, align 4
  %35 = add nsw i32 %34, 1
  store i32 %35, i32* %4, align 4
  br label %12

36:                                               ; preds = %12
  store i32 0, i32* %6, align 4
  br label %37

37:                                               ; preds = %203, %36
  %38 = load i32, i32* %6, align 4
  store i32 %38, i32* %7, align 4
  %39 = load i32, i32* %3, align 4
  %40 = sub nsw i32 %39, 1
  %41 = load i32, i32* %6, align 4
  %42 = sub nsw i32 %40, %41
  store i32 %42, i32* %8, align 4
  %43 = load i32, i32* %6, align 4
  store i32 %43, i32* %9, align 4
  %44 = load i32, i32* %2, align 4
  %45 = sub nsw i32 %44, 1
  %46 = load i32, i32* %6, align 4
  %47 = sub nsw i32 %45, %46
  store i32 %47, i32* %10, align 4
  %48 = load i32, i32* %7, align 4
  %49 = load i32, i32* %8, align 4
  %50 = icmp sgt i32 %48, %49
  br i1 %50, label %55, label %51

51:                                               ; preds = %37
  %52 = load i32, i32* %9, align 4
  %53 = load i32, i32* %10, align 4
  %54 = icmp sgt i32 %52, %53
  br i1 %54, label %55, label %56

55:                                               ; preds = %51, %37
  br label %206

56:                                               ; preds = %51
  %57 = load i32, i32* %7, align 4
  %58 = load i32, i32* %8, align 4
  %59 = icmp eq i32 %57, %58
  br i1 %59, label %60, label %83

60:                                               ; preds = %56
  %61 = load i32, i32* %9, align 4
  %62 = load i32, i32* %10, align 4
  %63 = icmp ne i32 %61, %62
  br i1 %63, label %64, label %83

64:                                               ; preds = %60
  %65 = load i32, i32* %9, align 4
  store i32 %65, i32* %4, align 4
  br label %66

66:                                               ; preds = %79, %64
  %67 = load i32, i32* %4, align 4
  %68 = load i32, i32* %10, align 4
  %69 = icmp sle i32 %67, %68
  br i1 %69, label %70, label %82

70:                                               ; preds = %66
  %71 = load i32, i32* %4, align 4
  %72 = sext i32 %71 to i64
  %73 = getelementptr inbounds [100 x [100 x i32]], [100 x [100 x i32]]* @sz, i64 0, i64 %72
  %74 = load i32, i32* %7, align 4
  %75 = sext i32 %74 to i64
  %76 = getelementptr inbounds [100 x i32], [100 x i32]* %73, i64 0, i64 %75
  %77 = load i32, i32* %76, align 4
  %78 = call i32 (i8*, ...) @printf(i8* getelementptr inbounds ([4 x i8], [4 x i8]* @.str.2, i64 0, i64 0), i32 %77)
  br label %79

79:                                               ; preds = %70
  %80 = load i32, i32* %4, align 4
  %81 = add nsw i32 %80, 1
  store i32 %81, i32* %4, align 4
  br label %66

82:                                               ; preds = %66
  br label %202

83:                                               ; preds = %60, %56
  %84 = load i32, i32* %9, align 4
  %85 = load i32, i32* %10, align 4
  %86 = icmp eq i32 %84, %85
  br i1 %86, label %87, label %106

87:                                               ; preds = %83
  %88 = load i32, i32* %7, align 4
  store i32 %88, i32* %5, align 4
  br label %89

89:                                               ; preds = %102, %87
  %90 = load i32, i32* %5, align 4
  %91 = load i32, i32* %8, align 4
  %92 = icmp sle i32 %90, %91
  br i1 %92, label %93, label %105

93:                                               ; preds = %89
  %94 = load i32, i32* %9, align 4
  %95 = sext i32 %94 to i64
  %96 = getelementptr inbounds [100 x [100 x i32]], [100 x [100 x i32]]* @sz, i64 0, i64 %95
  %97 = load i32, i32* %5, align 4
  %98 = sext i32 %97 to i64
  %99 = getelementptr inbounds [100 x i32], [100 x i32]* %96, i64 0, i64 %98
  %100 = load i32, i32* %99, align 4
  %101 = call i32 (i8*, ...) @printf(i8* getelementptr inbounds ([4 x i8], [4 x i8]* @.str.2, i64 0, i64 0), i32 %100)
  br label %102

102:                                              ; preds = %93
  %103 = load i32, i32* %5, align 4
  %104 = add nsw i32 %103, 1
  store i32 %104, i32* %5, align 4
  br label %89

105:                                              ; preds = %89
  br label %201

106:                                              ; preds = %83
  %107 = load i32, i32* %9, align 4
  %108 = load i32, i32* %10, align 4
  %109 = icmp eq i32 %107, %108
  br i1 %109, label %110, label %123

110:                                              ; preds = %106
  %111 = load i32, i32* %7, align 4
  %112 = load i32, i32* %8, align 4
  %113 = icmp eq i32 %111, %112
  br i1 %113, label %114, label %123

114:                                              ; preds = %110
  %115 = load i32, i32* %9, align 4
  %116 = sext i32 %115 to i64
  %117 = getelementptr inbounds [100 x [100 x i32]], [100 x [100 x i32]]* @sz, i64 0, i64 %116
  %118 = load i32, i32* %7, align 4
  %119 = sext i32 %118 to i64
  %120 = getelementptr inbounds [100 x i32], [100 x i32]* %117, i64 0, i64 %119
  %121 = load i32, i32* %120, align 4
  %122 = call i32 (i8*, ...) @printf(i8* getelementptr inbounds ([4 x i8], [4 x i8]* @.str.2, i64 0, i64 0), i32 %121)
  br label %200

123:                                              ; preds = %110, %106
  %124 = load i32, i32* %7, align 4
  store i32 %124, i32* %5, align 4
  br label %125

125:                                              ; preds = %138, %123
  %126 = load i32, i32* %5, align 4
  %127 = load i32, i32* %8, align 4
  %128 = icmp sle i32 %126, %127
  br i1 %128, label %129, label %141

129:                                              ; preds = %125
  %130 = load i32, i32* %9, align 4
  %131 = sext i32 %130 to i64
  %132 = getelementptr inbounds [100 x [100 x i32]], [100 x [100 x i32]]* @sz, i64 0, i64 %131
  %133 = load i32, i32* %5, align 4
  %134 = sext i32 %133 to i64
  %135 = getelementptr inbounds [100 x i32], [100 x i32]* %132, i64 0, i64 %134
  %136 = load i32, i32* %135, align 4
  %137 = call i32 (i8*, ...) @printf(i8* getelementptr inbounds ([4 x i8], [4 x i8]* @.str.2, i64 0, i64 0), i32 %136)
  br label %138

138:                                              ; preds = %129
  %139 = load i32, i32* %5, align 4
  %140 = add nsw i32 %139, 1
  store i32 %140, i32* %5, align 4
  br label %125

141:                                              ; preds = %125
  %142 = load i32, i32* %9, align 4
  %143 = add nsw i32 %142, 1
  store i32 %143, i32* %4, align 4
  br label %144

144:                                              ; preds = %157, %141
  %145 = load i32, i32* %4, align 4
  %146 = load i32, i32* %10, align 4
  %147 = icmp sle i32 %145, %146
  br i1 %147, label %148, label %160

148:                                              ; preds = %144
  %149 = load i32, i32* %4, align 4
  %150 = sext i32 %149 to i64
  %151 = getelementptr inbounds [100 x [100 x i32]], [100 x [100 x i32]]* @sz, i64 0, i64 %150
  %152 = load i32, i32* %8, align 4
  %153 = sext i32 %152 to i64
  %154 = getelementptr inbounds [100 x i32], [100 x i32]* %151, i64 0, i64 %153
  %155 = load i32, i32* %154, align 4
  %156 = call i32 (i8*, ...) @printf(i8* getelementptr inbounds ([4 x i8], [4 x i8]* @.str.2, i64 0, i64 0), i32 %155)
  br label %157

157:                                              ; preds = %148
  %158 = load i32, i32* %4, align 4
  %159 = add nsw i32 %158, 1
  store i32 %159, i32* %4, align 4
  br label %144

160:                                              ; preds = %144
  %161 = load i32, i32* %8, align 4
  %162 = sub nsw i32 %161, 1
  store i32 %162, i32* %5, align 4
  br label %163

163:                                              ; preds = %176, %160
  %164 = load i32, i32* %5, align 4
  %165 = load i32, i32* %7, align 4
  %166 = icmp sge i32 %164, %165
  br i1 %166, label %167, label %179

167:                                              ; preds = %163
  %168 = load i32, i32* %10, align 4
  %169 = sext i32 %168 to i64
  %170 = getelementptr inbounds [100 x [100 x i32]], [100 x [100 x i32]]* @sz, i64 0, i64 %169
  %171 = load i32, i32* %5, align 4
  %172 = sext i32 %171 to i64
  %173 = getelementptr inbounds [100 x i32], [100 x i32]* %170, i64 0, i64 %172
  %174 = load i32, i32* %173, align 4
  %175 = call i32 (i8*, ...) @printf(i8* getelementptr inbounds ([4 x i8], [4 x i8]* @.str.2, i64 0, i64 0), i32 %174)
  br label %176

176:                                              ; preds = %167
  %177 = load i32, i32* %5, align 4
  %178 = add nsw i32 %177, -1
  store i32 %178, i32* %5, align 4
  br label %163

179:                                              ; preds = %163
  %180 = load i32, i32* %10, align 4
  %181 = sub nsw i32 %180, 1
  store i32 %181, i32* %4, align 4
  br label %182

182:                                              ; preds = %196, %179
  %183 = load i32, i32* %4, align 4
  %184 = load i32, i32* %9, align 4
  %185 = add nsw i32 %184, 1
  %186 = icmp sge i32 %183, %185
  br i1 %186, label %187, label %199

187:                                              ; preds = %182
  %188 = load i32, i32* %4, align 4
  %189 = sext i32 %188 to i64
  %190 = getelementptr inbounds [100 x [100 x i32]], [100 x [100 x i32]]* @sz, i64 0, i64 %189
  %191 = load i32, i32* %7, align 4
  %192 = sext i32 %191 to i64
  %193 = getelementptr inbounds [100 x i32], [100 x i32]* %190, i64 0, i64 %192
  %194 = load i32, i32* %193, align 4
  %195 = call i32 (i8*, ...) @printf(i8* getelementptr inbounds ([4 x i8], [4 x i8]* @.str.2, i64 0, i64 0), i32 %194)
  br label %196

196:                                              ; preds = %187
  %197 = load i32, i32* %4, align 4
  %198 = add nsw i32 %197, -1
  store i32 %198, i32* %4, align 4
  br label %182

199:                                              ; preds = %182
  br label %200

200:                                              ; preds = %199, %114
  br label %201

201:                                              ; preds = %200, %105
  br label %202

202:                                              ; preds = %201, %82
  br label %203

203:                                              ; preds = %202
  %204 = load i32, i32* %6, align 4
  %205 = add nsw i32 %204, 1
  store i32 %205, i32* %6, align 4
  br label %37

206:                                              ; preds = %55
  ret i32 0
}

declare dso_local i32 @__isoc99_scanf(i8*, ...) #1

declare dso_local i32 @printf(i8*, ...) #1


!llvm.module.flags = !{!0}
!llvm.ident = !{!1}

!0 = !{i32 1, !"wchar_size", i32 4}
!1 = !{!"clang version 10.0.0-4ubuntu1 "}
